target datalayout = "e-m:e-p270:32:32-p271:32:32-p272:64:64-i64:64-i128:128-f80:128-n8:16:32:64-S128"
target triple = "x86_64-pc-linux-gnu"

%struct._object = type { %union.anon, ptr }
%union.anon = type { i64 }
%struct.PyVarObject = type { %struct._object, i64 }
%struct.arraydescr = type { i8, i32, ptr, ptr, ptr, ptr, i32, i32 }
%struct.anon = type { i32, i32 }
%struct.arrayobject = type { %struct.PyVarObject, ptr, i64, ptr, ptr, i64 }

; Function Attrs: alwaysinline nounwind uwtable
define internal i32 @_Py_IsImmortal(ptr noundef %0) #4 {
  %2 = alloca ptr, align 8
  store ptr %0, ptr %2, align 8, !tbaa !3
  %3 = load ptr, ptr %2, align 8, !tbaa !3
  %4 = getelementptr inbounds nuw %struct._object, ptr %3, i32 0, i32 0
  %5 = getelementptr inbounds nuw %struct.anon, ptr %4, i32 0, i32 0
  %6 = load i32, ptr %5, align 8, !tbaa !36
  %7 = icmp slt i32 %6, 0
  %8 = zext i1 %7 to i32
  ret i32 %8
}

; Function Attrs: alwaysinline nounwind uwtable
define internal void @Py_DECREF(ptr noundef %0) #4 {
  %2 = alloca ptr, align 8
  store ptr %0, ptr %2, align 8, !tbaa !3
  %3 = load ptr, ptr %2, align 8, !tbaa !3
  %4 = call i32 @_Py_IsImmortal(ptr noundef %3)
  %5 = icmp ne i32 %4, 0
  br i1 %5, label %6, label %7

6:                                                ; preds = %1
  br label %16

7:                                                ; preds = %1
  %8 = load ptr, ptr %2, align 8, !tbaa !3
  %9 = getelementptr inbounds nuw %struct._object, ptr %8, i32 0, i32 0
  %10 = getelementptr inbounds nuw %struct.anon, ptr %9, i32 0, i32 0
  %11 = load i32, ptr %10, align 8, !tbaa !36
  %12 = add i32 %11, -1
  store i32 %12, ptr %10, align 8, !tbaa !36
  %13 = icmp eq i32 %12, 0
  br i1 %13, label %14, label %16

14:                                               ; preds = %7
  %15 = load ptr, ptr %2, align 8, !tbaa !3
  call void @_Py_Dealloc(ptr noundef %15)
  br label %16

16:                                               ; preds = %6, %14, %7
  ret void
}

; Function Attrs: nounwind uwtable
define internal ptr @getarrayitem(ptr noundef %0, i64 noundef %1) #0 {
  %3 = alloca ptr, align 8
  %4 = alloca i64, align 8
  %5 = alloca ptr, align 8
  store ptr %0, ptr %3, align 8, !tbaa !3
  store i64 %1, ptr %4, align 8, !tbaa !21
  call void @llvm.lifetime.start.p0(i64 8, ptr %5) #8
  %6 = load ptr, ptr %3, align 8, !tbaa !3
  store ptr %6, ptr %5, align 8, !tbaa !68
  %7 = load ptr, ptr %5, align 8, !tbaa !68
  %8 = getelementptr inbounds nuw %struct.arrayobject, ptr %7, i32 0, i32 3
  %9 = load ptr, ptr %8, align 8, !tbaa !99
  %10 = getelementptr inbounds nuw %struct.arraydescr, ptr %9, i32 0, i32 2
  %11 = load ptr, ptr %10, align 8, !tbaa !124
  %12 = load ptr, ptr %5, align 8, !tbaa !68
  %13 = load i64, ptr %4, align 8, !tbaa !21
  %14 = call ptr %11(ptr noundef %12, i64 noundef %13)
  call void @llvm.lifetime.end.p0(i64 8, ptr %5) #8
  ret ptr %14
}

; Function Attrs: inlinehint nounwind uwtable
define internal i64 @Py_SIZE(ptr noundef %0) #3 {
  %2 = alloca ptr, align 8
  store ptr %0, ptr %2, align 8, !tbaa !3
  %3 = load ptr, ptr %2, align 8, !tbaa !3
  %4 = getelementptr inbounds nuw %struct.PyVarObject, ptr %3, i32 0, i32 1
  %5 = load i64, ptr %4, align 8, !tbaa !62
  ret i64 %5
}

; Function Attrs: nounwind uwtable
define internal i32 @array_contains(ptr noundef %0, ptr noundef %1) #0 {
  %3 = alloca i32, align 4
  %4 = alloca ptr, align 8
  %5 = alloca ptr, align 8
  %6 = alloca i64, align 8
  %7 = alloca i32, align 4
  %8 = alloca ptr, align 8
  %9 = alloca i32, align 4
  store ptr %0, ptr %4, align 8, !tbaa !68
  store ptr %1, ptr %5, align 8, !tbaa !3
  call void @llvm.lifetime.start.p0(i64 8, ptr %6) #8
  call void @llvm.lifetime.start.p0(i64 4, ptr %7) #8
  store i64 0, ptr %6, align 8, !tbaa !21
  store i32 0, ptr %7, align 4, !tbaa !12
  br label %10

10:                                               ; preds = %35, %2
  %11 = load i32, ptr %7, align 4, !tbaa !12
  %12 = icmp eq i32 %11, 0
  br i1 %12, label %13, label %18

13:                                               ; preds = %10
  %14 = load i64, ptr %6, align 8, !tbaa !21
  %15 = load ptr, ptr %4, align 8, !tbaa !68
  %16 = call i64 @Py_SIZE(ptr noundef %15)
  %17 = icmp slt i64 %14, %16
  br label %18

18:                                               ; preds = %13, %10
  %19 = phi i1 [ false, %10 ], [ %17, %13 ]
  br i1 %19, label %20, label %38

20:                                               ; preds = %18
  call void @llvm.lifetime.start.p0(i64 8, ptr %8) #8
  %21 = load ptr, ptr %4, align 8, !tbaa !68
  %22 = load i64, ptr %6, align 8, !tbaa !21
  %23 = call ptr @getarrayitem(ptr noundef %21, i64 noundef %22)
  store ptr %23, ptr %8, align 8, !tbaa !3
  %24 = load ptr, ptr %8, align 8, !tbaa !3
  %25 = icmp eq ptr %24, null
  br i1 %25, label %26, label %27

26:                                               ; preds = %20
  store i32 -1, ptr %3, align 4
  store i32 1, ptr %9, align 4
  br label %32

27:                                               ; preds = %20
  %28 = load ptr, ptr %8, align 8, !tbaa !3
  %29 = load ptr, ptr %5, align 8, !tbaa !3
  %30 = call i32 @PyObject_RichCompareBool(ptr noundef %28, ptr noundef %29, i32 noundef 2)
  store i32 %30, ptr %7, align 4, !tbaa !12
  %31 = load ptr, ptr %8, align 8, !tbaa !3
  call void @Py_DECREF(ptr noundef %31)
  store i32 0, ptr %9, align 4
  br label %32

32:                                               ; preds = %27, %26
  call void @llvm.lifetime.end.p0(i64 8, ptr %8) #8
  %33 = load i32, ptr %9, align 4
  switch i32 %33, label %40 [
    i32 0, label %34
  ]

34:                                               ; preds = %32
  br label %35

35:                                               ; preds = %34
  %36 = load i64, ptr %6, align 8, !tbaa !21
  %37 = add i64 %36, 1
  store i64 %37, ptr %6, align 8, !tbaa !21
  br label %10, !llvm.loop !126

38:                                               ; preds = %18
  %39 = load i32, ptr %7, align 4, !tbaa !12
  store i32 %39, ptr %3, align 4
  store i32 1, ptr %9, align 4
  br label %40

40:                                               ; preds = %38, %32
  call void @llvm.lifetime.end.p0(i64 4, ptr %7) #8
  call void @llvm.lifetime.end.p0(i64 8, ptr %6) #8
  %41 = load i32, ptr %3, align 4
  ret i32 %41
}