; Function Attrs: nounwind uwtable
define internal i32 @array_contains(ptr noundef %0, ptr noundef %1) #0 {
  %3 = getelementptr i8, ptr %0, i64 16
  %4 = getelementptr inbounds nuw i8, ptr %0, i64 40
  br label %5

5:                                                ; preds = %2, %19
  %.01519 = phi i64 [ 0, %2 ], [ %20, %19 ]
  %.val = load i64, ptr %3, align 8, !tbaa !40
  %6 = icmp slt i64 %.01519, %.val
  br i1 %6, label %7, label %.critedge

7:                                                ; preds = %5
  %8 = load ptr, ptr %4, align 8, !tbaa !76
  %9 = getelementptr inbounds nuw i8, ptr %8, i64 8
  %10 = load ptr, ptr %9, align 8, !tbaa !97
  %11 = tail call ptr %10(ptr noundef nonnull %0, i64 noundef %.01519) #11
  %.not = icmp eq ptr %11, null
  br i1 %.not, label %.critedge, label %12

12:                                               ; preds = %7
  %13 = tail call i32 @PyObject_RichCompareBool(ptr noundef nonnull %11, ptr noundef %1, i32 noundef 2) #11
  %14 = load i32, ptr %11, align 8, !tbaa !17
  %.not.i = icmp sgt i32 %14, -1
  br i1 %.not.i, label %15, label %19

15:                                               ; preds = %12
  %16 = add nsw i32 %14, -1
  store i32 %16, ptr %11, align 8, !tbaa !17
  %17 = icmp eq i32 %16, 0
  br i1 %17, label %18, label %19

18:                                               ; preds = %15
  tail call void @_Py_Dealloc(ptr noundef nonnull %11) #11
  br label %19

19:                                               ; preds = %18, %15, %12
  %20 = add nuw nsw i64 %.01519, 1
  %21 = icmp eq i32 %13, 0
  br i1 %21, label %5, label %.critedge, !llvm.loop !106

.critedge:                                        ; preds = %7, %5, %19
  %.2 = phi i32 [ %13, %19 ], [ 0, %5 ], [ -1, %7 ]
  ret i32 %.2
}